target datalayout = "e-m:e-p270:32:32-p271:32:32-p272:64:64-i64:64-i128:128-f80:128-n8:16:32:64-S128"
target triple = "x86_64-pc-linux-gnu"

%struct.GISTSTATE = type { ptr, ptr, ptr, ptr, ptr, [32 x %struct.FmgrInfo], [32 x %struct.FmgrInfo], [32 x %struct.FmgrInfo], [32 x %struct.FmgrInfo], [32 x %struct.FmgrInfo], [32 x %struct.FmgrInfo], [32 x %struct.FmgrInfo], [32 x %struct.FmgrInfo], [32 x %struct.FmgrInfo], [32 x i32] }
%struct.FmgrInfo = type { ptr, i32, i16, i8, i8, i8, ptr, ptr, ptr }
%struct.GISTENTRY = type { i64, ptr, ptr, i16, i8 }
%struct.RelationData = type { %struct.RelFileLocator, ptr, i32, i32, i8, i8, i8, i8, i8, i32, i32, i32, i32, ptr, ptr, i32, %struct.LockInfoData, ptr, ptr, ptr, ptr, ptr, i8, ptr, ptr, ptr, ptr, ptr, ptr, i32, ptr, i8, ptr, ptr, i32, i8, i32, ptr, i8, ptr, ptr, ptr, ptr, ptr, ptr, ptr, i32, ptr, ptr, ptr, ptr, ptr, ptr, ptr, ptr, ptr, ptr, ptr, ptr, ptr, ptr, ptr, ptr, ptr, ptr, ptr, i32, i8, ptr }
%struct.RelFileLocator = type { i32, i32, i32 }
%struct.LockInfoData = type { %struct.LockRelId }
%struct.LockRelId = type { i32, i32 }
%struct.FormData_pg_index = type { i32, i32, i16, i16, i8, i8, i8, i8, i8, i8, i8, i8, i8, i8, i8, %struct.int2vector }
%struct.int2vector = type { i32, i32, i32, i32, i32, i32, [0 x i16] }

; Function Attrs: inlinehint nounwind uwtable
define internal ptr @DatumGetPointer(i64 noundef %0) #2 {
  %2 = alloca i64, align 8
  store i64 %0, ptr %2, align 8
  %3 = load i64, ptr %2, align 8
  %4 = inttoptr i64 %3 to ptr
  ret ptr %4
}

; Function Attrs: inlinehint nounwind uwtable
define internal i64 @PointerGetDatum(ptr noundef %0) #2 {
  %2 = alloca ptr, align 8
  store ptr %0, ptr %2, align 8
  %3 = load ptr, ptr %2, align 8
  %4 = ptrtoint ptr %3 to i64
  ret i64 %4
}

; Function Attrs: nounwind uwtable
define dso_local void @gistdentryinit(ptr noundef %0, i32 noundef %1, ptr noundef %2, i64 noundef %3, ptr noundef %4, ptr noundef %5, i16 noundef zeroext %6, i1 noundef zeroext %7, i1 noundef zeroext %8) #0 {
  %10 = alloca ptr, align 8
  %11 = alloca i32, align 4
  %12 = alloca ptr, align 8
  %13 = alloca i64, align 8
  %14 = alloca ptr, align 8
  %15 = alloca ptr, align 8
  %16 = alloca i16, align 2
  %17 = alloca i8, align 1
  %18 = alloca i8, align 1
  %19 = alloca ptr, align 8
  %20 = alloca i32, align 4
  store ptr %0, ptr %10, align 8
  store i32 %1, ptr %11, align 4
  store ptr %2, ptr %12, align 8
  store i64 %3, ptr %13, align 8
  store ptr %4, ptr %14, align 8
  store ptr %5, ptr %15, align 8
  store i16 %6, ptr %16, align 2
  %21 = zext i1 %7 to i8
  store i8 %21, ptr %17, align 1
  %22 = zext i1 %8 to i8
  store i8 %22, ptr %18, align 1
  %23 = load i8, ptr %18, align 1, !range !11, !noundef !12
  %24 = trunc i8 %23 to i1
  br i1 %24, label %109, label %25

25:                                               ; preds = %9
  call void @llvm.lifetime.start.p0(i64 8, ptr %19) #8
  br label %26

26:                                               ; preds = %25
  %27 = load i64, ptr %13, align 8
  %28 = load ptr, ptr %12, align 8
  %29 = getelementptr inbounds nuw %struct.GISTENTRY, ptr %28, i32 0, i32 0
  store i64 %27, ptr %29, align 8
  %30 = load ptr, ptr %14, align 8
  %31 = load ptr, ptr %12, align 8
  %32 = getelementptr inbounds nuw %struct.GISTENTRY, ptr %31, i32 0, i32 1
  store ptr %30, ptr %32, align 8
  %33 = load ptr, ptr %15, align 8
  %34 = load ptr, ptr %12, align 8
  %35 = getelementptr inbounds nuw %struct.GISTENTRY, ptr %34, i32 0, i32 2
  store ptr %33, ptr %35, align 8
  %36 = load i16, ptr %16, align 2
  %37 = load ptr, ptr %12, align 8
  %38 = getelementptr inbounds nuw %struct.GISTENTRY, ptr %37, i32 0, i32 3
  store i16 %36, ptr %38, align 8
  %39 = load i8, ptr %17, align 1, !range !11, !noundef !12
  %40 = trunc i8 %39 to i1
  %41 = load ptr, ptr %12, align 8
  %42 = getelementptr inbounds nuw %struct.GISTENTRY, ptr %41, i32 0, i32 4
  %43 = zext i1 %40 to i8
  store i8 %43, ptr %42, align 2
  br label %44

44:                                               ; preds = %26
  br label %45

45:                                               ; preds = %44
  %46 = load ptr, ptr %10, align 8
  %47 = getelementptr inbounds nuw %struct.GISTSTATE, ptr %46, i32 0, i32 8
  %48 = load i32, ptr %11, align 4
  %49 = sext i32 %48 to i64
  %50 = getelementptr inbounds [32 x %struct.FmgrInfo], ptr %47, i64 0, i64 %49
  %51 = getelementptr inbounds nuw %struct.FmgrInfo, ptr %50, i32 0, i32 1
  %52 = load i32, ptr %51, align 8
  %53 = icmp ne i32 %52, 0
  br i1 %53, label %55, label %54

54:                                               ; preds = %45
  store i32 1, ptr %20, align 4
  br label %106

55:                                               ; preds = %45
  %56 = load ptr, ptr %10, align 8
  %57 = getelementptr inbounds nuw %struct.GISTSTATE, ptr %56, i32 0, i32 8
  %58 = load i32, ptr %11, align 4
  %59 = sext i32 %58 to i64
  %60 = getelementptr inbounds [32 x %struct.FmgrInfo], ptr %57, i64 0, i64 %59
  %61 = load ptr, ptr %10, align 8
  %62 = getelementptr inbounds nuw %struct.GISTSTATE, ptr %61, i32 0, i32 14
  %63 = load i32, ptr %11, align 4
  %64 = sext i32 %63 to i64
  %65 = getelementptr inbounds [32 x i32], ptr %62, i64 0, i64 %64
  %66 = load i32, ptr %65, align 4
  %67 = load ptr, ptr %12, align 8
  %68 = call i64 @PointerGetDatum(ptr noundef %67)
  %69 = call i64 @FunctionCall1Coll(ptr noundef %60, i32 noundef %66, i64 noundef %68)
  %70 = call ptr @DatumGetPointer(i64 noundef %69)
  store ptr %70, ptr %19, align 8
  %71 = load ptr, ptr %19, align 8
  %72 = load ptr, ptr %12, align 8
  %73 = icmp ne ptr %71, %72
  br i1 %73, label %74, label %105

74:                                               ; preds = %55
  br label %75

75:                                               ; preds = %74
  %76 = load ptr, ptr %19, align 8
  %77 = getelementptr inbounds nuw %struct.GISTENTRY, ptr %76, i32 0, i32 0
  %78 = load i64, ptr %77, align 8
  %79 = load ptr, ptr %12, align 8
  %80 = getelementptr inbounds nuw %struct.GISTENTRY, ptr %79, i32 0, i32 0
  store i64 %78, ptr %80, align 8
  %81 = load ptr, ptr %19, align 8
  %82 = getelementptr inbounds nuw %struct.GISTENTRY, ptr %81, i32 0, i32 1
  %83 = load ptr, ptr %82, align 8
  %84 = load ptr, ptr %12, align 8
  %85 = getelementptr inbounds nuw %struct.GISTENTRY, ptr %84, i32 0, i32 1
  store ptr %83, ptr %85, align 8
  %86 = load ptr, ptr %19, align 8
  %87 = getelementptr inbounds nuw %struct.GISTENTRY, ptr %86, i32 0, i32 2
  %88 = load ptr, ptr %87, align 8
  %89 = load ptr, ptr %12, align 8
  %90 = getelementptr inbounds nuw %struct.GISTENTRY, ptr %89, i32 0, i32 2
  store ptr %88, ptr %90, align 8
  %91 = load ptr, ptr %19, align 8
  %92 = getelementptr inbounds nuw %struct.GISTENTRY, ptr %91, i32 0, i32 3
  %93 = load i16, ptr %92, align 8
  %94 = load ptr, ptr %12, align 8
  %95 = getelementptr inbounds nuw %struct.GISTENTRY, ptr %94, i32 0, i32 3
  store i16 %93, ptr %95, align 8
  %96 = load ptr, ptr %19, align 8
  %97 = getelementptr inbounds nuw %struct.GISTENTRY, ptr %96, i32 0, i32 4
  %98 = load i8, ptr %97, align 2, !range !11, !noundef !12
  %99 = trunc i8 %98 to i1
  %100 = load ptr, ptr %12, align 8
  %101 = getelementptr inbounds nuw %struct.GISTENTRY, ptr %100, i32 0, i32 4
  %102 = zext i1 %99 to i8
  store i8 %102, ptr %101, align 2
  br label %103

103:                                              ; preds = %75
  br label %104

104:                                              ; preds = %103
  br label %105

105:                                              ; preds = %104, %55
  store i32 0, ptr %20, align 4
  br label %106

106:                                              ; preds = %105, %54
  call void @llvm.lifetime.end.p0(i64 8, ptr %19) #8
  %107 = load i32, ptr %20, align 4
  switch i32 %107, label %129 [
    i32 0, label %108
    i32 1, label %128
  ]

108:                                              ; preds = %106
  br label %128

109:                                              ; preds = %9
  br label %110

110:                                              ; preds = %109
  %111 = load ptr, ptr %12, align 8
  %112 = getelementptr inbounds nuw %struct.GISTENTRY, ptr %111, i32 0, i32 0
  store i64 0, ptr %112, align 8
  %113 = load ptr, ptr %14, align 8
  %114 = load ptr, ptr %12, align 8
  %115 = getelementptr inbounds nuw %struct.GISTENTRY, ptr %114, i32 0, i32 1
  store ptr %113, ptr %115, align 8
  %116 = load ptr, ptr %15, align 8
  %117 = load ptr, ptr %12, align 8
  %118 = getelementptr inbounds nuw %struct.GISTENTRY, ptr %117, i32 0, i32 2
  store ptr %116, ptr %118, align 8
  %119 = load i16, ptr %16, align 2
  %120 = load ptr, ptr %12, align 8
  %121 = getelementptr inbounds nuw %struct.GISTENTRY, ptr %120, i32 0, i32 3
  store i16 %119, ptr %121, align 8
  %122 = load i8, ptr %17, align 1, !range !11, !noundef !12
  %123 = trunc i8 %122 to i1
  %124 = load ptr, ptr %12, align 8
  %125 = getelementptr inbounds nuw %struct.GISTENTRY, ptr %124, i32 0, i32 4
  %126 = zext i1 %123 to i8
  store i8 %126, ptr %125, align 2
  br label %127

127:                                              ; preds = %110
  br label %128

128:                                              ; preds = %106, %127, %108
  ret void

129:                                              ; preds = %106
  unreachable
}

; Function Attrs: nounwind uwtable
define dso_local void @gistDeCompressAtt(ptr noundef %0, ptr noundef %1, ptr noundef %2, ptr noundef %3, i16 noundef zeroext %4, ptr noundef %5, ptr noundef %6) #0 {
  %8 = alloca ptr, align 8
  %9 = alloca ptr, align 8
  %10 = alloca ptr, align 8
  %11 = alloca ptr, align 8
  %12 = alloca i16, align 2
  %13 = alloca ptr, align 8
  %14 = alloca ptr, align 8
  %15 = alloca i32, align 4
  %16 = alloca i64, align 8
  store ptr %0, ptr %8, align 8
  store ptr %1, ptr %9, align 8
  store ptr %2, ptr %10, align 8
  store ptr %3, ptr %11, align 8
  store i16 %4, ptr %12, align 2
  store ptr %5, ptr %13, align 8
  store ptr %6, ptr %14, align 8
  call void @llvm.lifetime.start.p0(i64 4, ptr %15) #8
  store i32 0, ptr %15, align 4
  br label %17

17:                                               ; preds = %54, %7
  %18 = load i32, ptr %15, align 4
  %19 = load ptr, ptr %9, align 8
  %20 = getelementptr inbounds nuw %struct.RelationData, ptr %19, i32 0, i32 48
  %21 = load ptr, ptr %20, align 8
  %22 = getelementptr inbounds nuw %struct.FormData_pg_index, ptr %21, i32 0, i32 3
  %23 = load i16, ptr %22, align 2
  %24 = sext i16 %23 to i32
  %25 = icmp slt i32 %18, %24
  br i1 %25, label %26, label %57

26:                                               ; preds = %17
  call void @llvm.lifetime.start.p0(i64 8, ptr %16) #8
  %27 = load ptr, ptr %10, align 8
  %28 = load i32, ptr %15, align 4
  %29 = add i32 %28, 1
  %30 = load ptr, ptr %8, align 8
  %31 = getelementptr inbounds nuw %struct.GISTSTATE, ptr %30, i32 0, i32 2
  %32 = load ptr, ptr %31, align 8
  %33 = load ptr, ptr %14, align 8
  %34 = load i32, ptr %15, align 4
  %35 = sext i32 %34 to i64
  %36 = getelementptr inbounds i8, ptr %33, i64 %35
  %37 = call i64 @index_getattr(ptr noundef %27, i32 noundef %29, ptr noundef %32, ptr noundef %36)
  store i64 %37, ptr %16, align 8
  %38 = load ptr, ptr %8, align 8
  %39 = load i32, ptr %15, align 4
  %40 = load ptr, ptr %13, align 8
  %41 = load i32, ptr %15, align 4
  %42 = sext i32 %41 to i64
  %43 = getelementptr inbounds %struct.GISTENTRY, ptr %40, i64 %42
  %44 = load i64, ptr %16, align 8
  %45 = load ptr, ptr %9, align 8
  %46 = load ptr, ptr %11, align 8
  %47 = load i16, ptr %12, align 2
  %48 = load ptr, ptr %14, align 8
  %49 = load i32, ptr %15, align 4
  %50 = sext i32 %49 to i64
  %51 = getelementptr inbounds i8, ptr %48, i64 %50
  %52 = load i8, ptr %51, align 1, !range !11, !noundef !12
  %53 = trunc i8 %52 to i1
  call void @gistdentryinit(ptr noundef %38, i32 noundef %39, ptr noundef %43, i64 noundef %44, ptr noundef %45, ptr noundef %46, i16 noundef zeroext %47, i1 noundef zeroext false, i1 noundef zeroext %53)
  call void @llvm.lifetime.end.p0(i64 8, ptr %16) #8
  br label %54

54:                                               ; preds = %26
  %55 = load i32, ptr %15, align 4
  %56 = add i32 %55, 1
  store i32 %56, ptr %15, align 4
  br label %17, !llvm.loop !15

57:                                               ; preds = %17
  call void @llvm.lifetime.end.p0(i64 4, ptr %15) #8
  ret void
}