; Function Attrs: nounwind uwtable
define dso_local void @gistDeCompressAtt(ptr noundef %0, ptr noundef %1, ptr noundef %2, ptr noundef %3, i16 noundef zeroext %4, ptr noundef %5, ptr noundef captures(none) %6) local_unnamed_addr #0 {
  %8 = getelementptr inbounds nuw i8, ptr %1, i64 328
  %9 = load ptr, ptr %8, align 8
  %10 = getelementptr inbounds nuw i8, ptr %9, i64 10
  %11 = load i16, ptr %10, align 2
  %12 = icmp sgt i16 %11, 0
  br i1 %12, label %.lr.ph, label %._crit_edge

.lr.ph:                                           ; preds = %7
  %13 = getelementptr inbounds nuw i8, ptr %0, i64 16
  %14 = getelementptr inbounds nuw i8, ptr %0, i64 4648
  %15 = getelementptr inbounds nuw i8, ptr %0, i64 13864
  br label %16

16:                                               ; preds = %.lr.ph, %gistdentryinit.exit
  %indvars.iv = phi i64 [ 0, %.lr.ph ], [ %indvars.iv.next, %gistdentryinit.exit ]
  %indvars.iv.next = add nuw nsw i64 %indvars.iv, 1
  %17 = load ptr, ptr %13, align 8
  %18 = getelementptr inbounds nuw i8, ptr %6, i64 %indvars.iv
  %19 = trunc nuw nsw i64 %indvars.iv.next to i32
  %20 = tail call fastcc i64 @index_getattr(ptr noundef %2, i32 noundef %19, ptr noundef %17, ptr noundef %18)
  %21 = getelementptr inbounds nuw %struct.GISTENTRY, ptr %5, i64 %indvars.iv
  %22 = load i8, ptr %18, align 1, !range !12, !noundef !13
  %23 = trunc nuw i8 %22 to i1
  %24 = getelementptr inbounds nuw i8, ptr %21, i64 8
  %25 = getelementptr inbounds nuw i8, ptr %21, i64 16
  %26 = getelementptr inbounds nuw i8, ptr %21, i64 24
  %27 = getelementptr inbounds nuw i8, ptr %21, i64 26
  br i1 %23, label %48, label %28

28:                                               ; preds = %16
  store i64 %20, ptr %21, align 8
  store ptr %1, ptr %24, align 8
  store ptr %3, ptr %25, align 8
  store i16 %4, ptr %26, align 8
  store i8 0, ptr %27, align 2
  %29 = getelementptr inbounds nuw [32 x %struct.FmgrInfo], ptr %14, i64 0, i64 %indvars.iv
  %30 = getelementptr inbounds nuw i8, ptr %29, i64 8
  %31 = load i32, ptr %30, align 8
  %.not.i = icmp eq i32 %31, 0
  br i1 %.not.i, label %gistdentryinit.exit, label %32

32:                                               ; preds = %28
  %33 = getelementptr inbounds nuw [32 x i32], ptr %15, i64 0, i64 %indvars.iv
  %34 = load i32, ptr %33, align 4
  %35 = ptrtoint ptr %21 to i64
  %36 = tail call i64 @FunctionCall1Coll(ptr noundef nonnull %29, i32 noundef %34, i64 noundef %35) #11
  %37 = inttoptr i64 %36 to ptr
  %.not39.i = icmp eq ptr %21, %37
  br i1 %.not39.i, label %gistdentryinit.exit, label %38

38:                                               ; preds = %32
  %39 = load i64, ptr %37, align 8
  store i64 %39, ptr %21, align 8
  %40 = getelementptr inbounds nuw i8, ptr %37, i64 8
  %41 = load ptr, ptr %40, align 8
  store ptr %41, ptr %24, align 8
  %42 = getelementptr inbounds nuw i8, ptr %37, i64 16
  %43 = load ptr, ptr %42, align 8
  store ptr %43, ptr %25, align 8
  %44 = getelementptr inbounds nuw i8, ptr %37, i64 24
  %45 = load i16, ptr %44, align 8
  store i16 %45, ptr %26, align 8
  %46 = getelementptr inbounds nuw i8, ptr %37, i64 26
  %47 = load i8, ptr %46, align 2, !range !12, !noundef !13
  br label %.sink.split.i

48:                                               ; preds = %16
  store i64 0, ptr %21, align 8
  store ptr %1, ptr %24, align 8
  store ptr %3, ptr %25, align 8
  store i16 %4, ptr %26, align 8
  br label %.sink.split.i

.sink.split.i:                                    ; preds = %48, %38
  %.sink.i = phi i8 [ %47, %38 ], [ 0, %48 ]
  store i8 %.sink.i, ptr %27, align 2
  br label %gistdentryinit.exit

gistdentryinit.exit:                              ; preds = %28, %32, %.sink.split.i
  %49 = load ptr, ptr %8, align 8
  %50 = getelementptr inbounds nuw i8, ptr %49, i64 10
  %51 = load i16, ptr %50, align 2
  %52 = sext i16 %51 to i64
  %53 = icmp slt i64 %indvars.iv.next, %52
  br i1 %53, label %16, label %._crit_edge, !llvm.loop !17

._crit_edge:                                      ; preds = %gistdentryinit.exit, %7
  ret void
}